; Function Attrs: nounwind uwtable
define dso_local noundef zeroext i1 @data_key_unset(ptr noundef %0, ptr noundef %1) local_unnamed_addr #0 {
  %.not = icmp eq ptr %0, null
  %.not25 = icmp eq ptr %1, null
  %or.cond = or i1 %.not, %.not25
  br i1 %or.cond, label %35, label %3

3:                                                ; preds = %2
  %4 = getelementptr inbounds nuw i8, ptr %0, i64 4
  %5 = load i32, ptr %4, align 4
  %.not26 = icmp eq i32 %5, 65283
  br i1 %.not26, label %6, label %35

6:                                                ; preds = %3
  %7 = getelementptr inbounds nuw i8, ptr %0, i64 8
  %8 = load ptr, ptr %7, align 8
  %9 = getelementptr inbounds nuw i8, ptr %8, i64 16
  %.032 = load ptr, ptr %9, align 8
  %.not2733 = icmp eq ptr %.032, null
  br i1 %.not2733, label %.critedge, label %.lr.ph

.lr.ph:                                           ; preds = %6, %13
  %.034 = phi ptr [ %.0, %13 ], [ %.032, %6 ]
  %10 = getelementptr inbounds nuw i8, ptr %.034, i64 24
  %11 = load ptr, ptr %10, align 8
  %12 = tail call i32 @xstrcmp(ptr noundef nonnull %1, ptr noundef %11) #16
  %.not28 = icmp eq i32 %12, 0
  br i1 %.not28, label %21, label %13

13:                                               ; preds = %.lr.ph
  %14 = getelementptr inbounds nuw i8, ptr %.034, i64 8
  %.0 = load ptr, ptr %14, align 8
  %.not27 = icmp eq ptr %.0, null
  br i1 %.not27, label %.critedge, label %.lr.ph, !llvm.loop !18

.critedge:                                        ; preds = %13, %6
  %15 = load i64, ptr getelementptr inbounds nuw (i8, ptr @slurm_conf, i64 320), align 8
  %16 = and i64 %15, 256
  %.not29 = icmp eq i64 %16, 0
  br i1 %.not29, label %35, label %17

17:                                               ; preds = %.critedge
  %18 = tail call i32 @get_log_level() #16
  %19 = icmp sgt i32 %18, 3
  br i1 %19, label %20, label %35

20:                                               ; preds = %17
  tail call void (i32, ptr, ...) @log_var(i32 noundef 4, ptr noundef nonnull @.str.20, ptr noundef nonnull @__func__.data_key_unset, ptr noundef nonnull %0, ptr noundef nonnull %1) #16
  br label %35

21:                                               ; preds = %.lr.ph
  %22 = getelementptr inbounds nuw i8, ptr %.034, i64 24
  %23 = load i64, ptr getelementptr inbounds nuw (i8, ptr @slurm_conf, i64 320), align 8
  %24 = and i64 %23, 256
  %.not30 = icmp eq i64 %24, 0
  br i1 %.not30, label %33, label %25

25:                                               ; preds = %21
  %26 = tail call i32 @get_log_level() #16
  %27 = icmp sgt i32 %26, 3
  br i1 %27, label %28, label %33

28:                                               ; preds = %25
  %29 = ptrtoint ptr %.034 to i64
  %30 = load ptr, ptr %22, align 8
  %31 = getelementptr inbounds nuw i8, ptr %.034, i64 16
  %32 = load ptr, ptr %31, align 8
  tail call void (i32, ptr, ...) @log_var(i32 noundef 4, ptr noundef nonnull @.str.21, ptr noundef nonnull @__func__.data_key_unset, ptr noundef nonnull %0, ptr noundef nonnull %1, i64 noundef %29, ptr noundef %30, ptr noundef %32) #16
  br label %33

33:                                               ; preds = %25, %28, %21
  %34 = load ptr, ptr %7, align 8
  tail call fastcc void @_release_data_list_node(ptr noundef %34, ptr noundef %.034)
  br label %35

35:                                               ; preds = %.critedge, %20, %17, %3, %2, %33
  %.022 = phi i1 [ true, %33 ], [ false, %2 ], [ false, %3 ], [ false, %17 ], [ false, %20 ], [ false, %.critedge ]
  ret i1 %.022
}